#include <math.h>
#include <stdio.h>
#include <stdlib.h>
#include <string.h>

void main()
{
	int i;
	char s[100],w[100],*p,*q;
	scanf("%s %s",s,w);
	p=s;q=w;
	while(*p!=*q)
	q++;
	for(i=0;i<strlen(s);i++,p++,q++)
		if(*p!=*q)break;
		if(i==strlen(s))
			printf("%d",q-w-strlen(s));
}