; ModuleID = '45/405.c'
source_filename = "45/405.c"
target datalayout = "e-m:e-p270:32:32-p271:32:32-p272:64:64-i64:64-f80:128-n8:16:32:64-S128"
target triple = "x86_64-pc-linux-gnu"

@.str = private unnamed_addr constant [6 x i8] c"%s %s\00", align 1
@.str.1 = private unnamed_addr constant [3 x i8] c"%d\00", align 1

; Function Attrs: noinline nounwind uwtable
define dso_local void @main() #0 {
  %1 = alloca i32, align 4
  %2 = alloca [100 x i8], align 16
  %3 = alloca [100 x i8], align 16
  %4 = alloca i8*, align 8
  %5 = alloca i8*, align 8
  %6 = getelementptr inbounds [100 x i8], [100 x i8]* %2, i64 0, i64 0
  %7 = getelementptr inbounds [100 x i8], [100 x i8]* %3, i64 0, i64 0
  %8 = call i32 (i8*, ...) @__isoc99_scanf(i8* getelementptr inbounds ([6 x i8], [6 x i8]* @.str, i64 0, i64 0), i8* %6, i8* %7)
  %9 = getelementptr inbounds [100 x i8], [100 x i8]* %2, i64 0, i64 0
  store i8* %9, i8** %4, align 8
  %10 = getelementptr inbounds [100 x i8], [100 x i8]* %3, i64 0, i64 0
  store i8* %10, i8** %5, align 8
  br label %11

11:                                               ; preds = %19, %0
  %12 = load i8*, i8** %4, align 8
  %13 = load i8, i8* %12, align 1
  %14 = sext i8 %13 to i32
  %15 = load i8*, i8** %5, align 8
  %16 = load i8, i8* %15, align 1
  %17 = sext i8 %16 to i32
  %18 = icmp ne i32 %14, %17
  br i1 %18, label %19, label %22

19:                                               ; preds = %11
  %20 = load i8*, i8** %5, align 8
  %21 = getelementptr inbounds i8, i8* %20, i32 1
  store i8* %21, i8** %5, align 8
  br label %11

22:                                               ; preds = %11
  store i32 0, i32* %1, align 4
  br label %23

23:                                               ; preds = %39, %22
  %24 = load i32, i32* %1, align 4
  %25 = sext i32 %24 to i64
  %26 = getelementptr inbounds [100 x i8], [100 x i8]* %2, i64 0, i64 0
  %27 = call i64 @strlen(i8* %26) #3
  %28 = icmp ult i64 %25, %27
  br i1 %28, label %29, label %46

29:                                               ; preds = %23
  %30 = load i8*, i8** %4, align 8
  %31 = load i8, i8* %30, align 1
  %32 = sext i8 %31 to i32
  %33 = load i8*, i8** %5, align 8
  %34 = load i8, i8* %33, align 1
  %35 = sext i8 %34 to i32
  %36 = icmp ne i32 %32, %35
  br i1 %36, label %37, label %38

37:                                               ; preds = %29
  br label %46

38:                                               ; preds = %29
  br label %39

39:                                               ; preds = %38
  %40 = load i32, i32* %1, align 4
  %41 = add nsw i32 %40, 1
  store i32 %41, i32* %1, align 4
  %42 = load i8*, i8** %4, align 8
  %43 = getelementptr inbounds i8, i8* %42, i32 1
  store i8* %43, i8** %4, align 8
  %44 = load i8*, i8** %5, align 8
  %45 = getelementptr inbounds i8, i8* %44, i32 1
  store i8* %45, i8** %5, align 8
  br label %23

46:                                               ; preds = %37, %23
  %47 = load i32, i32* %1, align 4
  %48 = sext i32 %47 to i64
  %49 = getelementptr inbounds [100 x i8], [100 x i8]* %2, i64 0, i64 0
  %50 = call i64 @strlen(i8* %49) #3
  %51 = icmp eq i64 %48, %50
  br i1 %51, label %52, label %62

52:                                               ; preds = %46
  %53 = load i8*, i8** %5, align 8
  %54 = getelementptr inbounds [100 x i8], [100 x i8]* %3, i64 0, i64 0
  %55 = ptrtoint i8* %53 to i64
  %56 = ptrtoint i8* %54 to i64
  %57 = sub i64 %55, %56
  %58 = getelementptr inbounds [100 x i8], [100 x i8]* %2, i64 0, i64 0
  %59 = call i64 @strlen(i8* %58) #3
  %60 = sub i64 %57, %59
  %61 = call i32 (i8*, ...) @printf(i8* getelementptr inbounds ([3 x i8], [3 x i8]* @.str.1, i64 0, i64 0), i64 %60)
  br label %62

62:                                               ; preds = %52, %46
  ret void
}

declare dso_local i32 @__isoc99_scanf(i8*, ...) #1

; Function Attrs: nounwind readonly
declare dso_local i64 @strlen(i8*) #2

declare dso_local i32 @printf(i8*, ...) #1


!llvm.module.flags = !{!0}
!llvm.ident = !{!1}

!0 = !{i32 1, !"wchar_size", i32 4}
!1 = !{!"clang version 10.0.0-4ubuntu1 "}
